; Function Attrs: mustprogress uwtable
define void @_ZNK6colvar4tilt11dist2_lgradERK11colvarvalueS3_(ptr dead_on_unwind noalias nonnull writable sret(%class.colvarvalue) align 8 %0, ptr nocapture nonnull readnone align 8 %1, ptr nocapture noundef nonnull readonly align 8 dereferenceable(168) %2, ptr nocapture noundef nonnull readonly align 8 dereferenceable(168) %3) unnamed_addr #2 align 2 {
  %5 = alloca double, align 8
  %6 = getelementptr inbounds i8, ptr %2, i64 8
  %7 = load double, ptr %6, align 8
  %8 = getelementptr inbounds i8, ptr %3, i64 8
  %9 = load double, ptr %8, align 8
  %10 = fsub double %7, %9
  %11 = fmul double %10, 2.000000e+00
  store double %11, ptr %5, align 8
  call void @_ZN11colvarvalueC1ERKd(ptr noundef nonnull align 8 dereferenceable(168) %0, ptr noundef nonnull align 8 dereferenceable(8) %5)
  ret void
}